; Function Attrs: mustprogress uwtable
define hidden void @_ZNK11user_solver6solver18collect_statisticsER10statistics(ptr nocapture noundef nonnull readonly align 8 dereferenceable(492) %this, ptr noundef nonnull align 8 dereferenceable(16) %st) unnamed_addr #3 align 2 {
entry:
  %m_stats = getelementptr inbounds i8, ptr %this, i64 480
  %0 = load i32, ptr %m_stats, align 8
  tail call void @_ZN10statistics6updateEPKcj(ptr noundef nonnull align 8 dereferenceable(16) %st, ptr noundef nonnull @.str.2, i32 noundef %0)
  %m_var2enode.i = getelementptr inbounds i8, ptr %this, i64 88
  %1 = load ptr, ptr %m_var2enode.i, align 8
  %cmp.i.i = icmp eq ptr %1, null
  br i1 %cmp.i.i, label %_ZNK3euf13th_euf_solver12get_num_varsEv.exit, label %if.end.i.i

if.end.i.i:                                       ; preds = %entry
  %arrayidx.i.i = getelementptr inbounds i8, ptr %1, i64 -4
  %2 = load i32, ptr %arrayidx.i.i, align 4
  br label %_ZNK3euf13th_euf_solver12get_num_varsEv.exit

_ZNK3euf13th_euf_solver12get_num_varsEv.exit:     ; preds = %entry, %if.end.i.i
  %retval.0.i.i = phi i32 [ %2, %if.end.i.i ], [ 0, %entry ]
  tail call void @_ZN10statistics6updateEPKcj(ptr noundef nonnull align 8 dereferenceable(16) %st, ptr noundef nonnull @.str.3, i32 noundef %retval.0.i.i)
  ret void
}